target datalayout = "e-m:e-p270:32:32-p271:32:32-p272:64:64-i64:64-i128:128-f80:128-n8:16:32:64-S128"
target triple = "x86_64-pc-linux-gnu"

%struct.AVCodecContext = type { ptr, i32, i32, ptr, i32, i32, ptr, ptr, ptr, i64, i32, i32, ptr, i32, %struct.AVRational, %struct.AVRational, %struct.AVRational, i32, i32, i32, i32, i32, %struct.AVRational, i32, i32, i32, i32, i32, i32, i32, i32, i32, i32, i32, ptr, ptr, i32, float, float, float, float, float, float, float, float, float, i32, i32, i32, i32, i32, i32, i32, i32, i32, i32, i32, i32, ptr, ptr, ptr, i32, i32, i32, i32, i32, i32, i32, i32, i32, i32, %struct.AVChannelLayout, i32, i32, i32, i32, i32, i32, i32, i32, ptr, i32, i32, i32, float, float, i32, i32, i32, i32, i32, ptr, i64, i64, float, float, i32, i32, ptr, ptr, i32, i32, i32, i32, i32, ptr, ptr, ptr, ptr, i32, i32, [8 x i64], i32, i32, i32, i32, i32, i32, i32, ptr, ptr, i32, i32, i32, i32, i32, i32, i32, i32, i32, i32, ptr, ptr, i32, i32, ptr, ptr, ptr, ptr, i32, i32, i64, i32, i32, i64, ptr, i64, ptr, i32, ptr, i32 }
%struct.AVRational = type { i32, i32 }
%struct.AVChannelLayout = type { i32, i32, %union.anon, ptr }
%union.anon = type { i64 }
%struct.FFV1Context = type { ptr, ptr, [256 x [2 x i64]], [8 x ptr], i32, i32, i32, i32, i32, i32, i32, i32, i32, i32, i64, i32, %struct.ProgressFrame, %struct.ProgressFrame, ptr, ptr, i32, i32, i32, ptr, i32, i32, [8 x [5 x [256 x i16]]], [8 x i32], [256 x i8], [8 x ptr], i32, i32, i32, i32, i32, i32, i32, i32, i32, i32, i32, i32, i32, i32, i32, i32, i32, i32, i32, ptr, ptr, i8 }
%struct.ProgressFrame = type { ptr, ptr }
%union.AVRefStructOpaque = type { ptr }
%struct.FFV1SliceContext = type { ptr, ptr, i32, i32, i32, i32, i32, i32, i32, i32, i32, i32, i32, ptr, %struct.PutBitContext, %struct.RangeCoder, i32, %union.anon.0, [4 x i32], [4 x ptr], [4 x ptr], [4 x ptr], [4 x i32], [4 x i32], [4 x ptr] }
%struct.PutBitContext = type { i32, i32, ptr, ptr, ptr }
%struct.RangeCoder = type { i32, i32, i32, i32, [256 x i8], [256 x i8], ptr, ptr, ptr, i32 }
%union.anon.0 = type { %struct.anon.1 }
%struct.anon.1 = type { [256 x [2 x i64]], [8 x ptr] }

@.str = private unnamed_addr constant [30 x i8] c"Assertion %s failed at %s:%d\0A\00", align 1
@.str.1 = private unnamed_addr constant [20 x i8] c"max_slice_count > 0\00", align 1
@.str.2 = private unnamed_addr constant [18 x i8] c"libavcodec/ffv1.c\00", align 1

; Function Attrs: inlinehint nounwind uwtable
define internal ptr @av_refstruct_alloc_ext(i64 noundef %0, i32 noundef %1, ptr noundef %2, ptr noundef %3) #2 {
  %5 = alloca i64, align 8
  %6 = alloca i32, align 4
  %7 = alloca ptr, align 8
  %8 = alloca ptr, align 8
  %9 = alloca %union.AVRefStructOpaque, align 8
  store i64 %0, ptr %5, align 8, !tbaa !44
  store i32 %1, ptr %6, align 4, !tbaa !45
  store ptr %2, ptr %7, align 8, !tbaa !46
  store ptr %3, ptr %8, align 8, !tbaa !46
  %10 = load i64, ptr %5, align 8, !tbaa !44
  %11 = load i32, ptr %6, align 4, !tbaa !45
  %12 = load ptr, ptr %7, align 8, !tbaa !46
  store ptr %12, ptr %9, align 8, !tbaa !47
  %13 = load ptr, ptr %8, align 8, !tbaa !46
  %14 = getelementptr inbounds nuw %union.AVRefStructOpaque, ptr %9, i32 0, i32 0
  %15 = load ptr, ptr %14, align 8
  %16 = call ptr @av_refstruct_alloc_ext_c(i64 noundef %10, i32 noundef %11, ptr %15, ptr noundef %13)
  ret ptr %16
}

; Function Attrs: nounwind uwtable
define ptr @ff_ffv1_planes_alloc() #1 {
  %1 = call ptr @av_refstruct_alloc_ext(i64 noundef 96, i32 noundef 0, ptr noundef null, ptr noundef @planes_free)
  ret ptr %1
}

; Function Attrs: cold nounwind optsize uwtable
define i32 @ff_ffv1_init_slice_contexts(ptr noundef %0) #0 {
  %2 = alloca i32, align 4
  %3 = alloca ptr, align 8
  %4 = alloca i32, align 4
  %5 = alloca i32, align 4
  %6 = alloca i32, align 4
  %7 = alloca ptr, align 8
  %8 = alloca i32, align 4
  %9 = alloca i32, align 4
  %10 = alloca i32, align 4
  %11 = alloca i32, align 4
  %12 = alloca i32, align 4
  %13 = alloca i32, align 4
  store ptr %0, ptr %3, align 8, !tbaa !9
  call void @llvm.lifetime.start.p0(i64 4, ptr %4) #9
  %14 = load ptr, ptr %3, align 8, !tbaa !9
  %15 = getelementptr inbounds nuw %struct.FFV1Context, ptr %14, i32 0, i32 48
  %16 = load i32, ptr %15, align 8, !tbaa !42
  %17 = load ptr, ptr %3, align 8, !tbaa !9
  %18 = getelementptr inbounds nuw %struct.FFV1Context, ptr %17, i32 0, i32 47
  %19 = load i32, ptr %18, align 4, !tbaa !43
  %20 = mul nsw i32 %16, %19
  store i32 %20, ptr %4, align 4, !tbaa !45
  br label %21

21:                                               ; preds = %1
  %22 = load i32, ptr %4, align 4, !tbaa !45
  %23 = icmp sgt i32 %22, 0
  br i1 %23, label %25, label %24

24:                                               ; preds = %21
  call void (ptr, i32, ptr, ...) @av_log(ptr noundef null, i32 noundef 0, ptr noundef @.str, ptr noundef @.str.1, ptr noundef @.str.2, i32 noundef 144)
  call void @abort() #11
  unreachable

25:                                               ; preds = %21
  br label %26

26:                                               ; preds = %25
  br label %27

27:                                               ; preds = %26
  %28 = load i32, ptr %4, align 4, !tbaa !45
  %29 = sext i32 %28 to i64
  %30 = call noalias ptr @av_calloc(i64 noundef %29, i64 noundef 5008)
  %31 = load ptr, ptr %3, align 8, !tbaa !9
  %32 = getelementptr inbounds nuw %struct.FFV1Context, ptr %31, i32 0, i32 49
  store ptr %30, ptr %32, align 8, !tbaa !72
  %33 = load ptr, ptr %3, align 8, !tbaa !9
  %34 = getelementptr inbounds nuw %struct.FFV1Context, ptr %33, i32 0, i32 49
  %35 = load ptr, ptr %34, align 8, !tbaa !72
  %36 = icmp ne ptr %35, null
  br i1 %36, label %38, label %37

37:                                               ; preds = %27
  store i32 -12, ptr %2, align 4
  store i32 1, ptr %5, align 4
  br label %189

38:                                               ; preds = %27
  %39 = load i32, ptr %4, align 4, !tbaa !45
  %40 = load ptr, ptr %3, align 8, !tbaa !9
  %41 = getelementptr inbounds nuw %struct.FFV1Context, ptr %40, i32 0, i32 46
  store i32 %39, ptr %41, align 8, !tbaa !71
  call void @llvm.lifetime.start.p0(i64 4, ptr %6) #9
  store i32 0, ptr %6, align 4, !tbaa !45
  br label %42

42:                                               ; preds = %183, %38
  %43 = load i32, ptr %6, align 4, !tbaa !45
  %44 = load i32, ptr %4, align 4, !tbaa !45
  %45 = icmp slt i32 %43, %44
  br i1 %45, label %47, label %46

46:                                               ; preds = %42
  store i32 4, ptr %5, align 4
  br label %186

47:                                               ; preds = %42
  call void @llvm.lifetime.start.p0(i64 8, ptr %7) #9
  %48 = load ptr, ptr %3, align 8, !tbaa !9
  %49 = getelementptr inbounds nuw %struct.FFV1Context, ptr %48, i32 0, i32 49
  %50 = load ptr, ptr %49, align 8, !tbaa !72
  %51 = load i32, ptr %6, align 4, !tbaa !45
  %52 = sext i32 %51 to i64
  %53 = getelementptr inbounds %struct.FFV1SliceContext, ptr %50, i64 %52
  store ptr %53, ptr %7, align 8, !tbaa !52
  call void @llvm.lifetime.start.p0(i64 4, ptr %8) #9
  %54 = load i32, ptr %6, align 4, !tbaa !45
  %55 = load ptr, ptr %3, align 8, !tbaa !9
  %56 = getelementptr inbounds nuw %struct.FFV1Context, ptr %55, i32 0, i32 48
  %57 = load i32, ptr %56, align 8, !tbaa !42
  %58 = srem i32 %54, %57
  store i32 %58, ptr %8, align 4, !tbaa !45
  call void @llvm.lifetime.start.p0(i64 4, ptr %9) #9
  %59 = load i32, ptr %6, align 4, !tbaa !45
  %60 = load ptr, ptr %3, align 8, !tbaa !9
  %61 = getelementptr inbounds nuw %struct.FFV1Context, ptr %60, i32 0, i32 48
  %62 = load i32, ptr %61, align 8, !tbaa !42
  %63 = sdiv i32 %59, %62
  store i32 %63, ptr %9, align 4, !tbaa !45
  call void @llvm.lifetime.start.p0(i64 4, ptr %10) #9
  %64 = load ptr, ptr %3, align 8, !tbaa !9
  %65 = load ptr, ptr %3, align 8, !tbaa !9
  %66 = getelementptr inbounds nuw %struct.FFV1Context, ptr %65, i32 0, i32 1
  %67 = load ptr, ptr %66, align 8, !tbaa !32
  %68 = getelementptr inbounds nuw %struct.AVCodecContext, ptr %67, i32 0, i32 18
  %69 = load i32, ptr %68, align 8, !tbaa !11
  %70 = load i32, ptr %8, align 4, !tbaa !45
  %71 = load ptr, ptr %3, align 8, !tbaa !9
  %72 = getelementptr inbounds nuw %struct.FFV1Context, ptr %71, i32 0, i32 48
  %73 = load i32, ptr %72, align 8, !tbaa !42
  %74 = load ptr, ptr %3, align 8, !tbaa !9
  %75 = getelementptr inbounds nuw %struct.FFV1Context, ptr %74, i32 0, i32 10
  %76 = load i32, ptr %75, align 8, !tbaa !75
  %77 = call i32 @ff_slice_coord(ptr noundef %64, i32 noundef %69, i32 noundef %70, i32 noundef %73, i32 noundef %76)
  store i32 %77, ptr %10, align 4, !tbaa !45
  call void @llvm.lifetime.start.p0(i64 4, ptr %11) #9
  %78 = load ptr, ptr %3, align 8, !tbaa !9
  %79 = load ptr, ptr %3, align 8, !tbaa !9
  %80 = getelementptr inbounds nuw %struct.FFV1Context, ptr %79, i32 0, i32 1
  %81 = load ptr, ptr %80, align 8, !tbaa !32
  %82 = getelementptr inbounds nuw %struct.AVCodecContext, ptr %81, i32 0, i32 18
  %83 = load i32, ptr %82, align 8, !tbaa !11
  %84 = load i32, ptr %8, align 4, !tbaa !45
  %85 = add nsw i32 %84, 1
  %86 = load ptr, ptr %3, align 8, !tbaa !9
  %87 = getelementptr inbounds nuw %struct.FFV1Context, ptr %86, i32 0, i32 48
  %88 = load i32, ptr %87, align 8, !tbaa !42
  %89 = load ptr, ptr %3, align 8, !tbaa !9
  %90 = getelementptr inbounds nuw %struct.FFV1Context, ptr %89, i32 0, i32 10
  %91 = load i32, ptr %90, align 8, !tbaa !75
  %92 = call i32 @ff_slice_coord(ptr noundef %78, i32 noundef %83, i32 noundef %85, i32 noundef %88, i32 noundef %91)
  store i32 %92, ptr %11, align 4, !tbaa !45
  call void @llvm.lifetime.start.p0(i64 4, ptr %12) #9
  %93 = load ptr, ptr %3, align 8, !tbaa !9
  %94 = load ptr, ptr %3, align 8, !tbaa !9
  %95 = getelementptr inbounds nuw %struct.FFV1Context, ptr %94, i32 0, i32 1
  %96 = load ptr, ptr %95, align 8, !tbaa !32
  %97 = getelementptr inbounds nuw %struct.AVCodecContext, ptr %96, i32 0, i32 19
  %98 = load i32, ptr %97, align 4, !tbaa !31
  %99 = load i32, ptr %9, align 4, !tbaa !45
  %100 = load ptr, ptr %3, align 8, !tbaa !9
  %101 = getelementptr inbounds nuw %struct.FFV1Context, ptr %100, i32 0, i32 47
  %102 = load i32, ptr %101, align 4, !tbaa !43
  %103 = load ptr, ptr %3, align 8, !tbaa !9
  %104 = getelementptr inbounds nuw %struct.FFV1Context, ptr %103, i32 0, i32 11
  %105 = load i32, ptr %104, align 4, !tbaa !76
  %106 = call i32 @ff_slice_coord(ptr noundef %93, i32 noundef %98, i32 noundef %99, i32 noundef %102, i32 noundef %105)
  store i32 %106, ptr %12, align 4, !tbaa !45
  call void @llvm.lifetime.start.p0(i64 4, ptr %13) #9
  %107 = load ptr, ptr %3, align 8, !tbaa !9
  %108 = load ptr, ptr %3, align 8, !tbaa !9
  %109 = getelementptr inbounds nuw %struct.FFV1Context, ptr %108, i32 0, i32 1
  %110 = load ptr, ptr %109, align 8, !tbaa !32
  %111 = getelementptr inbounds nuw %struct.AVCodecContext, ptr %110, i32 0, i32 19
  %112 = load i32, ptr %111, align 4, !tbaa !31
  %113 = load i32, ptr %9, align 4, !tbaa !45
  %114 = add nsw i32 %113, 1
  %115 = load ptr, ptr %3, align 8, !tbaa !9
  %116 = getelementptr inbounds nuw %struct.FFV1Context, ptr %115, i32 0, i32 47
  %117 = load i32, ptr %116, align 4, !tbaa !43
  %118 = load ptr, ptr %3, align 8, !tbaa !9
  %119 = getelementptr inbounds nuw %struct.FFV1Context, ptr %118, i32 0, i32 11
  %120 = load i32, ptr %119, align 4, !tbaa !76
  %121 = call i32 @ff_slice_coord(ptr noundef %107, i32 noundef %112, i32 noundef %114, i32 noundef %117, i32 noundef %120)
  store i32 %121, ptr %13, align 4, !tbaa !45
  %122 = load i32, ptr %11, align 4, !tbaa !45
  %123 = load i32, ptr %10, align 4, !tbaa !45
  %124 = sub nsw i32 %122, %123
  %125 = load ptr, ptr %7, align 8, !tbaa !52
  %126 = getelementptr inbounds nuw %struct.FFV1SliceContext, ptr %125, i32 0, i32 2
  store i32 %124, ptr %126, align 8, !tbaa !77
  %127 = load i32, ptr %13, align 4, !tbaa !45
  %128 = load i32, ptr %12, align 4, !tbaa !45
  %129 = sub nsw i32 %127, %128
  %130 = load ptr, ptr %7, align 8, !tbaa !52
  %131 = getelementptr inbounds nuw %struct.FFV1SliceContext, ptr %130, i32 0, i32 3
  store i32 %129, ptr %131, align 4, !tbaa !78
  %132 = load i32, ptr %10, align 4, !tbaa !45
  %133 = load ptr, ptr %7, align 8, !tbaa !52
  %134 = getelementptr inbounds nuw %struct.FFV1SliceContext, ptr %133, i32 0, i32 4
  store i32 %132, ptr %134, align 8, !tbaa !79
  %135 = load i32, ptr %12, align 4, !tbaa !45
  %136 = load ptr, ptr %7, align 8, !tbaa !52
  %137 = getelementptr inbounds nuw %struct.FFV1SliceContext, ptr %136, i32 0, i32 5
  store i32 %135, ptr %137, align 4, !tbaa !80
  %138 = load i32, ptr %8, align 4, !tbaa !45
  %139 = load ptr, ptr %7, align 8, !tbaa !52
  %140 = getelementptr inbounds nuw %struct.FFV1SliceContext, ptr %139, i32 0, i32 6
  store i32 %138, ptr %140, align 8, !tbaa !81
  %141 = load i32, ptr %9, align 4, !tbaa !45
  %142 = load ptr, ptr %7, align 8, !tbaa !52
  %143 = getelementptr inbounds nuw %struct.FFV1SliceContext, ptr %142, i32 0, i32 7
  store i32 %141, ptr %143, align 4, !tbaa !82
  %144 = load ptr, ptr %3, align 8, !tbaa !9
  %145 = getelementptr inbounds nuw %struct.FFV1Context, ptr %144, i32 0, i32 7
  %146 = load i32, ptr %145, align 4, !tbaa !40
  %147 = add nsw i32 %146, 6
  %148 = sext i32 %147 to i64
  %149 = call ptr @av_malloc_array(i64 noundef %148, i64 noundef 24)
  %150 = load ptr, ptr %7, align 8, !tbaa !52
  %151 = getelementptr inbounds nuw %struct.FFV1SliceContext, ptr %150, i32 0, i32 0
  store ptr %149, ptr %151, align 8, !tbaa !83
  %152 = load ptr, ptr %3, align 8, !tbaa !9
  %153 = getelementptr inbounds nuw %struct.FFV1Context, ptr %152, i32 0, i32 7
  %154 = load i32, ptr %153, align 4, !tbaa !40
  %155 = add nsw i32 %154, 6
  %156 = sext i32 %155 to i64
  %157 = call ptr @av_malloc_array(i64 noundef %156, i64 noundef 48)
  %158 = load ptr, ptr %7, align 8, !tbaa !52
  %159 = getelementptr inbounds nuw %struct.FFV1SliceContext, ptr %158, i32 0, i32 1
  store ptr %157, ptr %159, align 8, !tbaa !84
  %160 = load ptr, ptr %7, align 8, !tbaa !52
  %161 = getelementptr inbounds nuw %struct.FFV1SliceContext, ptr %160, i32 0, i32 0
  %162 = load ptr, ptr %161, align 8, !tbaa !83
  %163 = icmp ne ptr %162, null
  br i1 %163, label %164, label %169

164:                                              ; preds = %47
  %165 = load ptr, ptr %7, align 8, !tbaa !52
  %166 = getelementptr inbounds nuw %struct.FFV1SliceContext, ptr %165, i32 0, i32 1
  %167 = load ptr, ptr %166, align 8, !tbaa !84
  %168 = icmp ne ptr %167, null
  br i1 %168, label %170, label %169

169:                                              ; preds = %164, %47
  store i32 -12, ptr %2, align 4
  store i32 1, ptr %5, align 4
  br label %180

170:                                              ; preds = %164
  %171 = call ptr @ff_ffv1_planes_alloc()
  %172 = load ptr, ptr %7, align 8, !tbaa !52
  %173 = getelementptr inbounds nuw %struct.FFV1SliceContext, ptr %172, i32 0, i32 13
  store ptr %171, ptr %173, align 8, !tbaa !54
  %174 = load ptr, ptr %7, align 8, !tbaa !52
  %175 = getelementptr inbounds nuw %struct.FFV1SliceContext, ptr %174, i32 0, i32 13
  %176 = load ptr, ptr %175, align 8, !tbaa !54
  %177 = icmp ne ptr %176, null
  br i1 %177, label %179, label %178

178:                                              ; preds = %170
  store i32 -12, ptr %2, align 4
  store i32 1, ptr %5, align 4
  br label %180

179:                                              ; preds = %170
  store i32 0, ptr %5, align 4
  br label %180

180:                                              ; preds = %179, %178, %169
  call void @llvm.lifetime.end.p0(i64 4, ptr %13) #9
  call void @llvm.lifetime.end.p0(i64 4, ptr %12) #9
  call void @llvm.lifetime.end.p0(i64 4, ptr %11) #9
  call void @llvm.lifetime.end.p0(i64 4, ptr %10) #9
  call void @llvm.lifetime.end.p0(i64 4, ptr %9) #9
  call void @llvm.lifetime.end.p0(i64 4, ptr %8) #9
  call void @llvm.lifetime.end.p0(i64 8, ptr %7) #9
  %181 = load i32, ptr %5, align 4
  switch i32 %181, label %186 [
    i32 0, label %182
  ]

182:                                              ; preds = %180
  br label %183

183:                                              ; preds = %182
  %184 = load i32, ptr %6, align 4, !tbaa !45
  %185 = add nsw i32 %184, 1
  store i32 %185, ptr %6, align 4, !tbaa !45
  br label %42, !llvm.loop !85

186:                                              ; preds = %180, %46
  call void @llvm.lifetime.end.p0(i64 4, ptr %6) #9
  %187 = load i32, ptr %5, align 4
  switch i32 %187, label %189 [
    i32 4, label %188
  ]

188:                                              ; preds = %186
  store i32 0, ptr %2, align 4
  store i32 1, ptr %5, align 4
  br label %189

189:                                              ; preds = %188, %186, %37
  call void @llvm.lifetime.end.p0(i64 4, ptr %4) #9
  %190 = load i32, ptr %2, align 4
  ret i32 %190
}