; Function Attrs: cold nounwind optsize uwtable
define range(i32 -12, 1) i32 @ff_ffv1_init_slice_contexts(ptr noundef captures(none) %0) local_unnamed_addr #2 {
  %2 = getelementptr inbounds nuw i8, ptr %0, i64 25216
  %3 = load i32, ptr %2, align 8, !tbaa !39
  %4 = getelementptr inbounds nuw i8, ptr %0, i64 25212
  %5 = load i32, ptr %4, align 4, !tbaa !40
  %6 = mul nsw i32 %5, %3
  %7 = icmp sgt i32 %6, 0
  br i1 %7, label %9, label %8

8:                                                ; preds = %1
  tail call void (ptr, i32, ptr, ...) @av_log(ptr noundef null, i32 noundef 0, ptr noundef nonnull @.str, ptr noundef nonnull @.str.1, ptr noundef nonnull @.str.2, i32 noundef 144) #12
  tail call void @abort() #14
  unreachable

9:                                                ; preds = %1
  %10 = zext nneg i32 %6 to i64
  %11 = tail call noalias ptr @av_calloc(i64 noundef %10, i64 noundef 5008) #12
  %12 = getelementptr inbounds nuw i8, ptr %0, i64 25224
  store ptr %11, ptr %12, align 8, !tbaa !65
  %.not = icmp eq ptr %11, null
  br i1 %.not, label %.critedge, label %.lr.ph

.lr.ph:                                           ; preds = %9
  %13 = getelementptr inbounds nuw i8, ptr %0, i64 25208
  store i32 %6, ptr %13, align 8, !tbaa !63
  %14 = getelementptr inbounds nuw i8, ptr %0, i64 8
  %15 = getelementptr inbounds nuw i8, ptr %0, i64 4200
  %16 = getelementptr inbounds nuw i8, ptr %0, i64 4204
  %17 = getelementptr inbounds nuw i8, ptr %0, i64 4188
  br label %19

18:                                               ; preds = %58
  %indvars.iv.next = add nuw nsw i64 %indvars.iv, 1
  %exitcond.not = icmp eq i64 %indvars.iv.next, %10
  br i1 %exitcond.not, label %.critedge, label %19, !llvm.loop !67

19:                                               ; preds = %.lr.ph, %18
  %indvars.iv = phi i64 [ 0, %.lr.ph ], [ %indvars.iv.next, %18 ]
  %20 = load ptr, ptr %12, align 8, !tbaa !65
  %21 = getelementptr inbounds nuw %struct.FFV1SliceContext, ptr %20, i64 %indvars.iv
  %22 = load i32, ptr %2, align 8, !tbaa !39
  %23 = trunc nuw nsw i64 %indvars.iv to i32
  %24 = srem i32 %23, %22
  %25 = sdiv i32 %23, %22
  %26 = load ptr, ptr %14, align 8, !tbaa !28
  %27 = getelementptr inbounds nuw i8, ptr %26, i64 112
  %28 = load i32, ptr %27, align 8, !tbaa !4
  %29 = load i32, ptr %15, align 8, !tbaa !68
  %30 = tail call i32 @ff_slice_coord(ptr noundef nonnull %0, i32 noundef %28, i32 noundef %24, i32 noundef %22, i32 noundef %29)
  %31 = add nuw nsw i32 %24, 1
  %32 = tail call i32 @ff_slice_coord(ptr noundef nonnull %0, i32 noundef %28, i32 noundef %31, i32 noundef %22, i32 noundef %29)
  %33 = getelementptr inbounds nuw i8, ptr %26, i64 116
  %34 = load i32, ptr %33, align 4, !tbaa !27
  %35 = load i32, ptr %4, align 4, !tbaa !40
  %36 = load i32, ptr %16, align 4, !tbaa !69
  %37 = tail call i32 @ff_slice_coord(ptr noundef nonnull %0, i32 noundef %34, i32 noundef %25, i32 noundef %35, i32 noundef %36)
  %38 = add nsw i32 %25, 1
  %39 = tail call i32 @ff_slice_coord(ptr noundef nonnull %0, i32 noundef %34, i32 noundef %38, i32 noundef %35, i32 noundef %36)
  %40 = sub nsw i32 %32, %30
  %41 = getelementptr inbounds nuw i8, ptr %21, i64 16
  store i32 %40, ptr %41, align 8, !tbaa !70
  %42 = sub nsw i32 %39, %37
  %43 = getelementptr inbounds nuw i8, ptr %21, i64 20
  store i32 %42, ptr %43, align 4, !tbaa !71
  %44 = getelementptr inbounds nuw i8, ptr %21, i64 24
  store i32 %30, ptr %44, align 8, !tbaa !72
  %45 = getelementptr inbounds nuw i8, ptr %21, i64 28
  store i32 %37, ptr %45, align 4, !tbaa !73
  %46 = getelementptr inbounds nuw i8, ptr %21, i64 32
  store i32 %24, ptr %46, align 8, !tbaa !74
  %47 = getelementptr inbounds nuw i8, ptr %21, i64 36
  store i32 %25, ptr %47, align 4, !tbaa !75
  %48 = load i32, ptr %17, align 4, !tbaa !37
  %49 = add nsw i32 %48, 6
  %50 = sext i32 %49 to i64
  %51 = tail call ptr @av_malloc_array(i64 noundef %50, i64 noundef 24) #12
  store ptr %51, ptr %21, align 8, !tbaa !76
  %52 = load i32, ptr %17, align 4, !tbaa !37
  %53 = add nsw i32 %52, 6
  %54 = sext i32 %53 to i64
  %55 = tail call ptr @av_malloc_array(i64 noundef %54, i64 noundef 48) #12
  %56 = getelementptr inbounds nuw i8, ptr %21, i64 8
  store ptr %55, ptr %56, align 8, !tbaa !77
  %57 = load ptr, ptr %21, align 8, !tbaa !76
  %.not66 = icmp eq ptr %57, null
  %.not67 = icmp eq ptr %55, null
  %or.cond = select i1 %.not66, i1 true, i1 %.not67
  br i1 %or.cond, label %.critedge, label %58

58:                                               ; preds = %19
  %59 = tail call ptr @av_refstruct_alloc_ext_c(i64 noundef 96, i32 noundef 0, ptr null, ptr noundef nonnull @planes_free) #12
  %60 = getelementptr inbounds nuw i8, ptr %21, i64 64
  store ptr %59, ptr %60, align 8, !tbaa !44
  %.not68.not = icmp eq ptr %59, null
  br i1 %.not68.not, label %.critedge, label %18

.critedge:                                        ; preds = %19, %18, %58, %9
  %.0 = phi i32 [ -12, %9 ], [ -12, %19 ], [ 0, %18 ], [ -12, %58 ]
  ret i32 %.0
}